; Function Attrs: mustprogress nounwind uwtable
define dso_local noundef i32 @_ZN4node6crypto18SecretKeyGenTraits8DoKeyGenEPNS_11EnvironmentEPNS0_18SecretKeyGenConfigE(ptr nocapture readnone %env, ptr noundef %params) local_unnamed_addr #3 align 2 {
entry:
  %ref.tmp4 = alloca %"class.node::crypto::ByteSource", align 8
  %length = getelementptr inbounds i8, ptr %params, i64 8
  %0 = load i64, ptr %length, align 8
  %call1.i.i = tail call ptr @CRYPTO_malloc(i64 noundef %0, ptr noundef nonnull @.str.9, i32 noundef 205) #16
  %cmp.i.i = icmp eq ptr %call1.i.i, null
  %cmp2.i.i = icmp ne i64 %0, 0
  %.not.i.i = and i1 %cmp2.i.i, %cmp.i.i
  br i1 %.not.i.i, label %do.body5.i.i, label %_ZN4node6crypto10ByteSource7BuilderC2Em.exit

do.body5.i.i:                                     ; preds = %entry
  tail call void @_ZN4node6AssertERKNS_13AssertionInfoE(ptr noundef nonnull align 8 dereferenceable(24) @_ZZN4node6crypto13MallocOpenSSLIcEEPT_mE4args) #16
  tail call void @abort() #17
  unreachable

_ZN4node6crypto10ByteSource7BuilderC2Em.exit:     ; preds = %entry
  %1 = load i64, ptr %length, align 8
  %call2 = tail call i8 @_ZN4node6crypto6CSPRNGEPvm(ptr noundef %call1.i.i, i64 noundef %1) #16
  %2 = and i8 %call2, 1
  %tobool.not.i = icmp eq i8 %2, 0
  br i1 %tobool.not.i, label %cleanup, label %_ZNO4node6crypto10ByteSource7Builder7releaseESt8optionalImE.exit

_ZNO4node6crypto10ByteSource7Builder7releaseESt8optionalImE.exit: ; preds = %_ZN4node6crypto10ByteSource7BuilderC2Em.exit
  call void @_ZN4node6crypto10ByteSource9AllocatedEPvm(ptr nonnull sret(%"class.node::crypto::ByteSource") align 8 %ref.tmp4, ptr noundef %call1.i.i, i64 noundef %0) #16
  %out = getelementptr inbounds i8, ptr %params, i64 16
  %call6 = call noundef nonnull align 8 dereferenceable(24) ptr @_ZN4node6crypto10ByteSourceaSEOS1_(ptr noundef nonnull align 8 dereferenceable(24) %out, ptr noundef nonnull align 8 dereferenceable(24) %ref.tmp4) #16
  call void @_ZN4node6crypto10ByteSourceD1Ev(ptr noundef nonnull align 8 dereferenceable(24) %ref.tmp4) #16
  br label %cleanup

cleanup:                                          ; preds = %_ZN4node6crypto10ByteSource7BuilderC2Em.exit, %_ZNO4node6crypto10ByteSource7Builder7releaseESt8optionalImE.exit
  %bytes.sroa.7.1 = phi i64 [ %0, %_ZN4node6crypto10ByteSource7BuilderC2Em.exit ], [ 0, %_ZNO4node6crypto10ByteSource7Builder7releaseESt8optionalImE.exit ]
  %bytes.sroa.0.2 = phi ptr [ %call1.i.i, %_ZN4node6crypto10ByteSource7BuilderC2Em.exit ], [ null, %_ZNO4node6crypto10ByteSource7Builder7releaseESt8optionalImE.exit ]
  %retval.0 = phi i32 [ 1, %_ZN4node6crypto10ByteSource7BuilderC2Em.exit ], [ 0, %_ZNO4node6crypto10ByteSource7Builder7releaseESt8optionalImE.exit ]
  call void @CRYPTO_clear_free(ptr noundef %bytes.sroa.0.2, i64 noundef %bytes.sroa.7.1, ptr noundef nonnull @.str.9, i32 noundef 225) #16
  ret i32 %retval.0
}